; Function Attrs: mustprogress ssp uwtable
define void @_ZN6open3d4core7HashSet4LoadERKNSt7__cxx1112basic_stringIcSt11char_traitsIcESaIcEEE(ptr dead_on_unwind noalias writable sret(%"class.open3d::core::HashSet") align 8 %0, ptr noundef nonnull align 8 dereferenceable(32) %1) local_unnamed_addr #1 align 2 personality ptr @__gxx_personality_v0 {
  %3 = alloca %"class.open3d::core::HashMap", align 8
  call void @llvm.lifetime.start.p0(i64 152, ptr nonnull %3) #19
  call void @_ZN6open3d1t2io11ReadHashMapERKNSt7__cxx1112basic_stringIcSt11char_traitsIcESaIcEEE(ptr dead_on_unwind nonnull writable sret(%"class.open3d::core::HashMap") align 8 %3, ptr noundef nonnull align 8 dereferenceable(32) %1)
  invoke void @_ZN6open3d4core7HashSetC1ERKNS0_7HashMapE(ptr noundef nonnull align 8 dereferenceable(24) %0, ptr noundef nonnull align 8 dereferenceable(152) %3)
          to label %4 unwind label %5

4:                                                ; preds = %2
  call void @_ZN6open3d4core7HashMapD2Ev(ptr noundef nonnull align 8 dereferenceable(152) %3) #19
  call void @llvm.lifetime.end.p0(i64 152, ptr nonnull %3) #19
  ret void

5:                                                ; preds = %2
  %6 = landingpad { ptr, i32 }
          cleanup
  call void @_ZN6open3d4core7HashMapD2Ev(ptr noundef nonnull align 8 dereferenceable(152) %3) #19
  call void @llvm.lifetime.end.p0(i64 152, ptr nonnull %3) #19
  resume { ptr, i32 } %6
}